target datalayout = "e-m:e-p270:32:32-p271:32:32-p272:64:64-i64:64-i128:128-f80:128-n8:16:32:64-S128"
target triple = "x86_64-pc-linux-gnu"

%struct.slurmdb_cluster_rec = type { ptr, i16, i64, %struct.sockaddr_storage, ptr, i32, i16, ptr, i16, %struct.slurmdb_cluster_fed_t, i32, %union.pthread_mutex_t, ptr, ptr, ptr, i16, ptr, ptr }
%struct.sockaddr_storage = type { i16, [118 x i8], i64 }
%struct.slurmdb_cluster_fed_t = type { ptr, i32, ptr, ptr, ptr, i32, i8, i8 }
%union.pthread_mutex_t = type { %struct.__pthread_mutex_s }
%struct.__pthread_mutex_s = type { i32, i32, i32, i32, i32, i16, i16, %struct.__pthread_internal_list }
%struct.__pthread_internal_list = type { ptr, ptr }
%struct.slurmdb_tres_rec_t = type { i64, i32, i64, i32, ptr, ptr }
%struct.slurmdb_report_cluster_rec_t = type { ptr, ptr, ptr, ptr, ptr }

@.str.2 = private unnamed_addr constant [15 x i8] c"slurmdb_defs.c\00", align 1
@__func__.slurmdb_cluster_rec_2_report = private unnamed_addr constant [29 x i8] c"slurmdb_cluster_rec_2_report\00", align 1

; Function Attrs: nounwind uwtable
define dso_local ptr @slurmdb_cluster_rec_2_report(ptr noundef %0) #0 {
  %2 = alloca ptr, align 8
  %3 = alloca ptr, align 8
  %4 = alloca ptr, align 8
  %5 = alloca ptr, align 8
  %6 = alloca ptr, align 8
  %7 = alloca ptr, align 8
  %8 = alloca i32, align 4
  %9 = alloca i32, align 4
  store ptr %0, ptr %3, align 8
  call void @llvm.lifetime.start.p0(i64 8, ptr %4) #10
  call void @llvm.lifetime.start.p0(i64 8, ptr %5) #10
  store ptr null, ptr %5, align 8
  call void @llvm.lifetime.start.p0(i64 8, ptr %6) #10
  call void @llvm.lifetime.start.p0(i64 8, ptr %7) #10
  store ptr null, ptr %7, align 8
  call void @llvm.lifetime.start.p0(i64 4, ptr %8) #10
  %10 = call ptr @slurm_xcalloc(i64 noundef 1, i64 noundef 40, i1 noundef zeroext true, i1 noundef zeroext false, ptr noundef @.str.2, i32 noundef 3273, ptr noundef @__func__.slurmdb_cluster_rec_2_report)
  store ptr %10, ptr %4, align 8
  %11 = load ptr, ptr %3, align 8
  %12 = getelementptr inbounds nuw %struct.slurmdb_cluster_rec, ptr %11, i32 0, i32 12
  %13 = load ptr, ptr %12, align 8
  %14 = call ptr @xstrdup(ptr noundef %13)
  %15 = load ptr, ptr %4, align 8
  %16 = getelementptr inbounds nuw %struct.slurmdb_report_cluster_rec_t, ptr %15, i32 0, i32 2
  store ptr %14, ptr %16, align 8
  %17 = load ptr, ptr %3, align 8
  %18 = getelementptr inbounds nuw %struct.slurmdb_cluster_rec, ptr %17, i32 0, i32 0
  %19 = load ptr, ptr %18, align 8
  %20 = call i32 @list_count(ptr noundef %19)
  store i32 %20, ptr %8, align 4
  %21 = icmp ne i32 %20, 0
  br i1 %21, label %24, label %22

22:                                               ; preds = %1
  %23 = load ptr, ptr %4, align 8
  store ptr %23, ptr %2, align 8
  store i32 1, ptr %9, align 4
  br label %60

24:                                               ; preds = %1
  %25 = load ptr, ptr %3, align 8
  %26 = getelementptr inbounds nuw %struct.slurmdb_cluster_rec, ptr %25, i32 0, i32 0
  %27 = load ptr, ptr %26, align 8
  %28 = call ptr @list_iterator_create(ptr noundef %27)
  store ptr %28, ptr %7, align 8
  br label %29

29:                                               ; preds = %33, %24
  %30 = load ptr, ptr %7, align 8
  %31 = call ptr @list_next(ptr noundef %30)
  store ptr %31, ptr %5, align 8
  %32 = icmp ne ptr %31, null
  br i1 %32, label %33, label %38

33:                                               ; preds = %29
  %34 = load ptr, ptr %5, align 8
  %35 = load ptr, ptr %4, align 8
  %36 = getelementptr inbounds nuw %struct.slurmdb_report_cluster_rec_t, ptr %35, i32 0, i32 3
  %37 = call i32 @slurmdb_add_cluster_accounting_to_tres_list(ptr noundef %34, ptr noundef %36)
  br label %29, !llvm.loop !37

38:                                               ; preds = %29
  %39 = load ptr, ptr %7, align 8
  call void @list_iterator_destroy(ptr noundef %39)
  %40 = load ptr, ptr %4, align 8
  %41 = getelementptr inbounds nuw %struct.slurmdb_report_cluster_rec_t, ptr %40, i32 0, i32 3
  %42 = load ptr, ptr %41, align 8
  %43 = call ptr @list_iterator_create(ptr noundef %42)
  store ptr %43, ptr %7, align 8
  br label %44

44:                                               ; preds = %48, %38
  %45 = load ptr, ptr %7, align 8
  %46 = call ptr @list_next(ptr noundef %45)
  store ptr %46, ptr %6, align 8
  %47 = icmp ne ptr %46, null
  br i1 %47, label %48, label %57

48:                                               ; preds = %44
  %49 = load ptr, ptr %6, align 8
  %50 = getelementptr inbounds nuw %struct.slurmdb_tres_rec_t, ptr %49, i32 0, i32 1
  %51 = load i32, ptr %50, align 8
  %52 = zext i32 %51 to i64
  %53 = load ptr, ptr %6, align 8
  %54 = getelementptr inbounds nuw %struct.slurmdb_tres_rec_t, ptr %53, i32 0, i32 2
  %55 = load i64, ptr %54, align 8
  %56 = udiv i64 %55, %52
  store i64 %56, ptr %54, align 8
  br label %44, !llvm.loop !38

57:                                               ; preds = %44
  %58 = load ptr, ptr %7, align 8
  call void @list_iterator_destroy(ptr noundef %58)
  %59 = load ptr, ptr %4, align 8
  store ptr %59, ptr %2, align 8
  store i32 1, ptr %9, align 4
  br label %60

60:                                               ; preds = %57, %22
  call void @llvm.lifetime.end.p0(i64 4, ptr %8) #10
  call void @llvm.lifetime.end.p0(i64 8, ptr %7) #10
  call void @llvm.lifetime.end.p0(i64 8, ptr %6) #10
  call void @llvm.lifetime.end.p0(i64 8, ptr %5) #10
  call void @llvm.lifetime.end.p0(i64 8, ptr %4) #10
  %61 = load ptr, ptr %2, align 8
  ret ptr %61
}