; Function Attrs: nounwind uwtable
define dso_local ptr @slurmdb_cluster_rec_2_report(ptr noundef readonly captures(none) %0) local_unnamed_addr #0 {
  %2 = tail call ptr @slurm_xcalloc(i64 noundef 1, i64 noundef 40, i1 noundef zeroext true, i1 noundef zeroext false, ptr noundef nonnull @.str.2, i32 noundef 3273, ptr noundef nonnull @__func__.slurmdb_cluster_rec_2_report) #19
  %3 = getelementptr inbounds nuw i8, ptr %0, i64 280
  %4 = load ptr, ptr %3, align 8
  %5 = tail call ptr @xstrdup(ptr noundef %4) #19
  %6 = getelementptr inbounds nuw i8, ptr %2, i64 16
  store ptr %5, ptr %6, align 8
  %7 = load ptr, ptr %0, align 8
  %8 = tail call i32 @list_count(ptr noundef %7) #19
  %.not = icmp eq i32 %8, 0
  br i1 %.not, label %30, label %9

9:                                                ; preds = %1
  %10 = load ptr, ptr %0, align 8
  %11 = tail call ptr @list_iterator_create(ptr noundef %10) #19
  %12 = tail call ptr @list_next(ptr noundef %11) #19
  %.not1719 = icmp eq ptr %12, null
  br i1 %.not1719, label %._crit_edge, label %.lr.ph

.lr.ph:                                           ; preds = %9
  %13 = getelementptr inbounds nuw i8, ptr %2, i64 24
  br label %14

14:                                               ; preds = %.lr.ph, %14
  %15 = phi ptr [ %12, %.lr.ph ], [ %17, %14 ]
  %16 = tail call i32 @slurmdb_add_cluster_accounting_to_tres_list(ptr noundef nonnull %15, ptr noundef nonnull %13)
  %17 = tail call ptr @list_next(ptr noundef %11) #19
  %.not17 = icmp eq ptr %17, null
  br i1 %.not17, label %._crit_edge, label %14, !llvm.loop !37

._crit_edge:                                      ; preds = %14, %9
  tail call void @list_iterator_destroy(ptr noundef %11) #19
  %18 = getelementptr inbounds nuw i8, ptr %2, i64 24
  %19 = load ptr, ptr %18, align 8
  %20 = tail call ptr @list_iterator_create(ptr noundef %19) #19
  %21 = tail call ptr @list_next(ptr noundef %20) #19
  %.not1820 = icmp eq ptr %21, null
  br i1 %.not1820, label %._crit_edge23, label %.lr.ph22

.lr.ph22:                                         ; preds = %._crit_edge, %.lr.ph22
  %22 = phi ptr [ %29, %.lr.ph22 ], [ %21, %._crit_edge ]
  %23 = getelementptr inbounds nuw i8, ptr %22, i64 8
  %24 = load i32, ptr %23, align 8
  %25 = zext i32 %24 to i64
  %26 = getelementptr inbounds nuw i8, ptr %22, i64 16
  %27 = load i64, ptr %26, align 8
  %28 = udiv i64 %27, %25
  store i64 %28, ptr %26, align 8
  %29 = tail call ptr @list_next(ptr noundef %20) #19
  %.not18 = icmp eq ptr %29, null
  br i1 %.not18, label %._crit_edge23, label %.lr.ph22, !llvm.loop !38

._crit_edge23:                                    ; preds = %.lr.ph22, %._crit_edge
  tail call void @list_iterator_destroy(ptr noundef %20) #19
  br label %30

30:                                               ; preds = %1, %._crit_edge23
  ret ptr %2
}